target datalayout = "e-m:e-p270:32:32-p271:32:32-p272:64:64-i64:64-i128:128-f80:128-n8:16:32:64-S128"
target triple = "x86_64-pc-linux-gnu"

%class.LogTagSet = type { ptr, i64, [5 x i32], [4 x i8], %class.LogOutputList, %class.LogDecorators, ptr }
%class.LogOutputList = type <{ [6 x ptr], i32, [4 x i8] }>
%class.LogDecorators = type { i32 }
%"struct.ShenandoahHeuristics::RegionData" = type { ptr, i64 }
%class.ShenandoahHeapRegion = type { i64, ptr, ptr, ptr, double, i32, ptr, i64, i64, i64, i64, ptr }
%"struct.Atomic::LoadImpl" = type { i8 }
%"struct.Atomic::PlatformLoad" = type { i8 }

@ShenandoahGarbageThreshold = external global i64, align 8
@.str.14 = private unnamed_addr constant [52 x i8] c"CSet Selection. Actual Free: %lu%s, Max CSet: %lu%s\00", align 1
@_ZN16LogTagSetMappingILN6LogTag4typeE49ELS1_40ELS1_0ELS1_0ELS1_0ELS1_0EE7_tagsetE = linkonce_odr hidden global %class.LogTagSet zeroinitializer, comdat, align 8
@.str.20 = private unnamed_addr constant [2 x i8] c"G\00", align 1
@.str.21 = private unnamed_addr constant [2 x i8] c"M\00", align 1
@.str.22 = private unnamed_addr constant [2 x i8] c"K\00", align 1
@.str.23 = private unnamed_addr constant [2 x i8] c"B\00", align 1
@_ZN20ShenandoahHeapRegion15RegionSizeBytesE = external global i64, align 8

; Function Attrs: mustprogress nounwind uwtable
define linkonce_odr hidden noundef i64 @_ZNK6Atomic12PlatformLoadILm8EEclImEET_PVKS3_(ptr noundef nonnull align 1 dereferenceable(1) %0, ptr noundef %1) #1 comdat align 2 {
  %3 = alloca ptr, align 8
  %4 = alloca ptr, align 8
  store ptr %0, ptr %3, align 8
  store ptr %1, ptr %4, align 8
  %5 = load ptr, ptr %4, align 8
  %6 = load volatile i64, ptr %5, align 8
  ret i64 %6
}

; Function Attrs: mustprogress nounwind uwtable
define linkonce_odr hidden noundef i64 @_Z13pointer_deltaPVKvS0_m(ptr noundef %0, ptr noundef %1, i64 noundef %2) #1 comdat {
  %4 = alloca ptr, align 8
  %5 = alloca ptr, align 8
  %6 = alloca i64, align 8
  store ptr %0, ptr %4, align 8
  store ptr %1, ptr %5, align 8
  store i64 %2, ptr %6, align 8
  %7 = load ptr, ptr %4, align 8
  %8 = ptrtoint ptr %7 to i64
  %9 = load ptr, ptr %5, align 8
  %10 = ptrtoint ptr %9 to i64
  %11 = sub i64 %8, %10
  %12 = load i64, ptr %6, align 8
  %13 = udiv i64 %11, %12
  ret i64 %13
}

; Function Attrs: mustprogress nounwind uwtable
define linkonce_odr hidden noundef i64 @_ZNK6Atomic8LoadImplImNS_12PlatformLoadILm8EEEvEclEPVKm(ptr noundef nonnull align 1 dereferenceable(1) %0, ptr noundef %1) #1 comdat align 2 {
  %3 = alloca ptr, align 8
  %4 = alloca ptr, align 8
  %5 = alloca %"struct.Atomic::PlatformLoad", align 1
  store ptr %0, ptr %3, align 8
  store ptr %1, ptr %4, align 8
  %6 = load ptr, ptr %4, align 8
  %7 = call noundef i64 @_ZNK6Atomic12PlatformLoadILm8EEclImEET_PVKS3_(ptr noundef nonnull align 1 dereferenceable(1) %5, ptr noundef %6)
  ret i64 %7
}

; Function Attrs: mustprogress nounwind uwtable
define linkonce_odr hidden noundef i64 @_Z9byte_sizePvS_(ptr noundef %0, ptr noundef %1) #1 comdat {
  %3 = alloca ptr, align 8
  %4 = alloca ptr, align 8
  store ptr %0, ptr %3, align 8
  store ptr %1, ptr %4, align 8
  %5 = load ptr, ptr %4, align 8
  %6 = load ptr, ptr %3, align 8
  %7 = call noundef i64 @_Z13pointer_deltaPVKvS0_m(ptr noundef %5, ptr noundef %6, i64 noundef 1)
  ret i64 %7
}

; Function Attrs: mustprogress nounwind uwtable
define linkonce_odr hidden noundef ptr @_ZNK20ShenandoahHeapRegion3topEv(ptr noundef nonnull align 8 dereferenceable(96) %0) #1 comdat align 2 {
  %2 = alloca ptr, align 8
  store ptr %0, ptr %2, align 8
  %3 = load ptr, ptr %2, align 8
  %4 = getelementptr inbounds %class.ShenandoahHeapRegion, ptr %3, i32 0, i32 6
  %5 = load ptr, ptr %4, align 8
  ret ptr %5
}

; Function Attrs: mustprogress nounwind uwtable
define linkonce_odr hidden noundef ptr @_ZNK20ShenandoahHeapRegion6bottomEv(ptr noundef nonnull align 8 dereferenceable(96) %0) #1 comdat align 2 {
  %2 = alloca ptr, align 8
  store ptr %0, ptr %2, align 8
  %3 = load ptr, ptr %2, align 8
  %4 = getelementptr inbounds %class.ShenandoahHeapRegion, ptr %3, i32 0, i32 1
  %5 = load ptr, ptr %4, align 8
  ret ptr %5
}

; Function Attrs: mustprogress nounwind uwtable
define linkonce_odr hidden noundef i64 @_ZN6Atomic4loadImEET_PVKS1_(ptr noundef %0) #1 comdat align 2 {
  %2 = alloca ptr, align 8
  %3 = alloca %"struct.Atomic::LoadImpl", align 1
  store ptr %0, ptr %2, align 8
  %4 = load ptr, ptr %2, align 8
  %5 = call noundef i64 @_ZNK6Atomic8LoadImplImNS_12PlatformLoadILm8EEEvEclEPVKm(ptr noundef nonnull align 1 dereferenceable(1) %3, ptr noundef %4)
  ret i64 %5
}

; Function Attrs: mustprogress nounwind uwtable
define linkonce_odr hidden noundef zeroext i1 @_ZNK13LogOutputList8is_levelEN8LogLevel4typeE(ptr noundef nonnull align 8 dereferenceable(52) %0, i32 noundef %1) #1 comdat align 2 {
  %3 = alloca ptr, align 8
  %4 = alloca i32, align 4
  store ptr %0, ptr %3, align 8
  store i32 %1, ptr %4, align 4
  %5 = load ptr, ptr %3, align 8
  %6 = getelementptr inbounds %class.LogOutputList, ptr %5, i32 0, i32 0
  %7 = load i32, ptr %4, align 4
  %8 = zext i32 %7 to i64
  %9 = getelementptr inbounds [6 x ptr], ptr %6, i64 0, i64 %8
  %10 = load volatile ptr, ptr %9, align 8
  %11 = icmp ne ptr %10, null
  ret i1 %11
}

; Function Attrs: mustprogress nounwind uwtable
define linkonce_odr hidden noundef i64 @_ZNK20ShenandoahHeapRegion4usedEv(ptr noundef nonnull align 8 dereferenceable(96) %0) #1 comdat align 2 {
  %2 = alloca ptr, align 8
  store ptr %0, ptr %2, align 8
  %3 = load ptr, ptr %2, align 8
  %4 = call noundef ptr @_ZNK20ShenandoahHeapRegion6bottomEv(ptr noundef nonnull align 8 dereferenceable(96) %3)
  %5 = call noundef ptr @_ZNK20ShenandoahHeapRegion3topEv(ptr noundef nonnull align 8 dereferenceable(96) %3)
  %6 = call noundef i64 @_Z9byte_sizePvS_(ptr noundef %4, ptr noundef %5)
  ret i64 %6
}

; Function Attrs: mustprogress nounwind uwtable
define linkonce_odr hidden noundef i64 @_ZNK20ShenandoahHeapRegion19get_live_data_wordsEv(ptr noundef nonnull align 8 dereferenceable(96) %0) #1 comdat align 2 {
  %2 = alloca ptr, align 8
  store ptr %0, ptr %2, align 8
  %3 = load ptr, ptr %2, align 8
  %4 = getelementptr inbounds %class.ShenandoahHeapRegion, ptr %3, i32 0, i32 9
  %5 = call noundef i64 @_ZN6Atomic4loadImEET_PVKS1_(ptr noundef %4)
  ret i64 %5
}

; Function Attrs: mustprogress nounwind uwtable
define linkonce_odr hidden noundef zeroext i1 @_ZNK9LogTagSet8is_levelEN8LogLevel4typeE(ptr noundef nonnull align 8 dereferenceable(112) %0, i32 noundef %1) #1 comdat align 2 {
  %3 = alloca ptr, align 8
  %4 = alloca i32, align 4
  store ptr %0, ptr %3, align 8
  store i32 %1, ptr %4, align 4
  %5 = load ptr, ptr %3, align 8
  %6 = getelementptr inbounds %class.LogTagSet, ptr %5, i32 0, i32 4
  %7 = load i32, ptr %4, align 4
  %8 = call noundef zeroext i1 @_ZNK13LogOutputList8is_levelEN8LogLevel4typeE(ptr noundef nonnull align 8 dereferenceable(52) %6, i32 noundef %7)
  ret i1 %8
}

; Function Attrs: mustprogress nounwind uwtable
define linkonce_odr hidden noundef nonnull align 8 dereferenceable(112) ptr @_ZN16LogTagSetMappingILN6LogTag4typeE49ELS1_40ELS1_0ELS1_0ELS1_0ELS1_0EE6tagsetEv() #1 comdat align 2 {
  ret ptr @_ZN16LogTagSetMappingILN6LogTag4typeE49ELS1_40ELS1_0ELS1_0ELS1_0ELS1_0EE7_tagsetE
}

; Function Attrs: mustprogress nounwind uwtable
define linkonce_odr hidden noundef i64 @_ZNK20ShenandoahHeapRegion7garbageEv(ptr noundef nonnull align 8 dereferenceable(96) %0) #1 comdat align 2 {
  %2 = alloca ptr, align 8
  %3 = alloca i64, align 8
  store ptr %0, ptr %2, align 8
  %4 = load ptr, ptr %2, align 8
  %5 = call noundef i64 @_ZNK20ShenandoahHeapRegion4usedEv(ptr noundef nonnull align 8 dereferenceable(96) %4)
  %6 = call noundef i64 @_ZNK20ShenandoahHeapRegion19get_live_data_bytesEv(ptr noundef nonnull align 8 dereferenceable(96) %4)
  %7 = sub i64 %5, %6
  store i64 %7, ptr %3, align 8
  %8 = load i64, ptr %3, align 8
  ret i64 %8
}

; Function Attrs: mustprogress nounwind uwtable
define linkonce_odr hidden noundef i64 @_ZNK20ShenandoahHeapRegion19get_live_data_bytesEv(ptr noundef nonnull align 8 dereferenceable(96) %0) #1 comdat align 2 {
  %2 = alloca ptr, align 8
  store ptr %0, ptr %2, align 8
  %3 = load ptr, ptr %2, align 8
  %4 = call noundef i64 @_ZNK20ShenandoahHeapRegion19get_live_data_wordsEv(ptr noundef nonnull align 8 dereferenceable(96) %3)
  %5 = mul i64 %4, 8
  ret i64 %5
}

; Function Attrs: mustprogress nounwind uwtable
define linkonce_odr hidden noundef i64 @_ZN20ShenandoahHeapRegion17region_size_bytesEv() #1 comdat align 2 {
  %1 = load i64, ptr @_ZN20ShenandoahHeapRegion15RegionSizeBytesE, align 8
  ret i64 %1
}

; Function Attrs: mustprogress nounwind uwtable
define linkonce_odr hidden noundef ptr @_Z25proper_unit_for_byte_sizem(i64 noundef %0) #1 comdat {
  %2 = alloca ptr, align 8
  %3 = alloca i64, align 8
  store i64 %0, ptr %3, align 8
  %4 = load i64, ptr %3, align 8
  %5 = icmp uge i64 %4, 107374182400
  br i1 %5, label %6, label %7

6:                                                ; preds = %1
  store ptr @.str.20, ptr %2, align 8
  br label %16

7:                                                ; preds = %1
  %8 = load i64, ptr %3, align 8
  %9 = icmp uge i64 %8, 104857600
  br i1 %9, label %10, label %11

10:                                               ; preds = %7
  store ptr @.str.21, ptr %2, align 8
  br label %16

11:                                               ; preds = %7
  %12 = load i64, ptr %3, align 8
  %13 = icmp uge i64 %12, 102400
  br i1 %13, label %14, label %15

14:                                               ; preds = %11
  store ptr @.str.22, ptr %2, align 8
  br label %16

15:                                               ; preds = %11
  store ptr @.str.23, ptr %2, align 8
  br label %16

16:                                               ; preds = %15, %14, %10, %6
  %17 = load ptr, ptr %2, align 8
  ret ptr %17
}

; Function Attrs: mustprogress nounwind uwtable
define linkonce_odr hidden noundef i64 @_Z24byte_size_in_proper_unitImET_S0_(i64 noundef %0) #1 comdat {
  %2 = alloca i64, align 8
  %3 = alloca i64, align 8
  store i64 %0, ptr %3, align 8
  %4 = load i64, ptr %3, align 8
  %5 = icmp uge i64 %4, 107374182400
  br i1 %5, label %6, label %9

6:                                                ; preds = %1
  %7 = load i64, ptr %3, align 8
  %8 = udiv i64 %7, 1073741824
  store i64 %8, ptr %2, align 8
  br label %23

9:                                                ; preds = %1
  %10 = load i64, ptr %3, align 8
  %11 = icmp uge i64 %10, 104857600
  br i1 %11, label %12, label %15

12:                                               ; preds = %9
  %13 = load i64, ptr %3, align 8
  %14 = udiv i64 %13, 1048576
  store i64 %14, ptr %2, align 8
  br label %23

15:                                               ; preds = %9
  %16 = load i64, ptr %3, align 8
  %17 = icmp uge i64 %16, 102400
  br i1 %17, label %18, label %21

18:                                               ; preds = %15
  %19 = load i64, ptr %3, align 8
  %20 = udiv i64 %19, 1024
  store i64 %20, ptr %2, align 8
  br label %23

21:                                               ; preds = %15
  %22 = load i64, ptr %3, align 8
  store i64 %22, ptr %2, align 8
  br label %23

23:                                               ; preds = %21, %18, %12, %6
  %24 = load i64, ptr %2, align 8
  ret i64 %24
}

; Function Attrs: mustprogress nounwind uwtable
define linkonce_odr hidden noundef zeroext i1 @_ZN7LogImplILN6LogTag4typeE49ELS1_40ELS1_0ELS1_0ELS1_0ELS1_0EE8is_levelEN8LogLevel4typeE(i32 noundef %0) #1 comdat align 2 {
  %2 = alloca i32, align 4
  store i32 %0, ptr %2, align 4
  %3 = call noundef nonnull align 8 dereferenceable(112) ptr @_ZN16LogTagSetMappingILN6LogTag4typeE49ELS1_40ELS1_0ELS1_0ELS1_0ELS1_0EE6tagsetEv()
  %4 = load i32, ptr %2, align 4
  %5 = call noundef zeroext i1 @_ZNK9LogTagSet8is_levelEN8LogLevel4typeE(ptr noundef nonnull align 8 dereferenceable(112) %3, i32 noundef %4)
  ret i1 %5
}

; Function Attrs: mustprogress nounwind uwtable
define hidden void @_ZN27ShenandoahCompactHeuristics37choose_collection_set_from_regiondataEP23ShenandoahCollectionSetPN20ShenandoahHeuristics10RegionDataEmm(ptr noundef nonnull align 8 dereferenceable(193) %0, ptr noundef %1, ptr noundef %2, i64 noundef %3, i64 noundef %4) unnamed_addr #1 align 2 {
  %6 = alloca ptr, align 8
  %7 = alloca ptr, align 8
  %8 = alloca ptr, align 8
  %9 = alloca i64, align 8
  %10 = alloca i64, align 8
  %11 = alloca i64, align 8
  %12 = alloca i64, align 8
  %13 = alloca i64, align 8
  %14 = alloca i64, align 8
  %15 = alloca ptr, align 8
  %16 = alloca i64, align 8
  store ptr %0, ptr %6, align 8
  store ptr %1, ptr %7, align 8
  store ptr %2, ptr %8, align 8
  store i64 %3, ptr %9, align 8
  store i64 %4, ptr %10, align 8
  %17 = load i64, ptr %10, align 8
  %18 = mul i64 %17, 3
  %19 = udiv i64 %18, 4
  store i64 %19, ptr %11, align 8
  %20 = call noundef zeroext i1 @_ZN7LogImplILN6LogTag4typeE49ELS1_40ELS1_0ELS1_0ELS1_0ELS1_0EE8is_levelEN8LogLevel4typeE(i32 noundef 3)
  br i1 %20, label %22, label %21

21:                                               ; preds = %5
  br label %31

22:                                               ; preds = %5
  %23 = load i64, ptr %10, align 8
  %24 = call noundef i64 @_Z24byte_size_in_proper_unitImET_S0_(i64 noundef %23)
  %25 = load i64, ptr %10, align 8
  %26 = call noundef ptr @_Z25proper_unit_for_byte_sizem(i64 noundef %25)
  %27 = load i64, ptr %11, align 8
  %28 = call noundef i64 @_Z24byte_size_in_proper_unitImET_S0_(i64 noundef %27)
  %29 = load i64, ptr %11, align 8
  %30 = call noundef ptr @_Z25proper_unit_for_byte_sizem(i64 noundef %29)
  call void (ptr, ...) @_ZN7LogImplILN6LogTag4typeE49ELS1_40ELS1_0ELS1_0ELS1_0ELS1_0EE5writeILN8LogLevel4typeE3EEEvPKcz(ptr noundef @.str.14, i64 noundef %24, ptr noundef %26, i64 noundef %28, ptr noundef %30)
  br label %31

31:                                               ; preds = %22, %21
  %32 = call noundef i64 @_ZN20ShenandoahHeapRegion17region_size_bytesEv()
  %33 = load i64, ptr @ShenandoahGarbageThreshold, align 8
  %34 = mul i64 %32, %33
  %35 = udiv i64 %34, 100
  store i64 %35, ptr %12, align 8
  store i64 0, ptr %13, align 8
  store i64 0, ptr %14, align 8
  br label %36

36:                                               ; preds = %63, %31
  %37 = load i64, ptr %14, align 8
  %38 = load i64, ptr %9, align 8
  %39 = icmp ult i64 %37, %38
  br i1 %39, label %40, label %66

40:                                               ; preds = %36
  %41 = load ptr, ptr %8, align 8
  %42 = load i64, ptr %14, align 8
  %43 = getelementptr inbounds %"struct.ShenandoahHeuristics::RegionData", ptr %41, i64 %42
  %44 = getelementptr inbounds %"struct.ShenandoahHeuristics::RegionData", ptr %43, i32 0, i32 0
  %45 = load ptr, ptr %44, align 8
  store ptr %45, ptr %15, align 8
  %46 = load i64, ptr %13, align 8
  %47 = load ptr, ptr %15, align 8
  %48 = call noundef i64 @_ZNK20ShenandoahHeapRegion19get_live_data_bytesEv(ptr noundef nonnull align 8 dereferenceable(96) %47)
  %49 = add i64 %46, %48
  store i64 %49, ptr %16, align 8
  %50 = load i64, ptr %16, align 8
  %51 = load i64, ptr %11, align 8
  %52 = icmp ult i64 %50, %51
  br i1 %52, label %53, label %62

53:                                               ; preds = %40
  %54 = load ptr, ptr %15, align 8
  %55 = call noundef i64 @_ZNK20ShenandoahHeapRegion7garbageEv(ptr noundef nonnull align 8 dereferenceable(96) %54)
  %56 = load i64, ptr %12, align 8
  %57 = icmp ugt i64 %55, %56
  br i1 %57, label %58, label %62

58:                                               ; preds = %53
  %59 = load i64, ptr %16, align 8
  store i64 %59, ptr %13, align 8
  %60 = load ptr, ptr %7, align 8
  %61 = load ptr, ptr %15, align 8
  call void @_ZN23ShenandoahCollectionSet10add_regionEP20ShenandoahHeapRegion(ptr noundef nonnull align 8 dereferenceable(256) %60, ptr noundef %61)
  br label %62

62:                                               ; preds = %58, %53, %40
  br label %63

63:                                               ; preds = %62
  %64 = load i64, ptr %14, align 8
  %65 = add i64 %64, 1
  store i64 %65, ptr %14, align 8
  br label %36, !llvm.loop !6

66:                                               ; preds = %36
  ret void
}