; Function Attrs: mustprogress nounwind uwtable
define hidden void @_ZN27ShenandoahCompactHeuristics37choose_collection_set_from_regiondataEP23ShenandoahCollectionSetPN20ShenandoahHeuristics10RegionDataEmm(ptr nocapture nonnull readnone align 8 %0, ptr noundef %1, ptr nocapture noundef readonly %2, i64 noundef %3, i64 noundef %4) unnamed_addr #0 align 2 {
  %6 = mul i64 %4, 3
  %7 = lshr i64 %6, 2
  %8 = load volatile ptr, ptr getelementptr inbounds (i8, ptr @_ZN16LogTagSetMappingILN6LogTag4typeE49ELS1_40ELS1_0ELS1_0ELS1_0ELS1_0EE7_tagsetE, i64 64), align 8
  %.not = icmp eq ptr %8, null
  br i1 %.not, label %26, label %9

9:                                                ; preds = %5
  %10 = icmp ugt i64 %4, 107374182399
  br i1 %10, label %_Z24byte_size_in_proper_unitImET_S0_.exit, label %11

11:                                               ; preds = %9
  %12 = icmp ugt i64 %4, 104857599
  br i1 %12, label %.thread, label %15

.thread:                                          ; preds = %11
  %13 = lshr i64 %4, 20
  br label %_Z25proper_unit_for_byte_sizem.exit

_Z24byte_size_in_proper_unitImET_S0_.exit:        ; preds = %9
  %14 = lshr i64 %4, 30
  br label %_Z25proper_unit_for_byte_sizem.exit

15:                                               ; preds = %11
  %16 = icmp ugt i64 %4, 102399
  %17 = lshr i64 %4, 10
  %spec.select.i = select i1 %16, i64 %17, i64 %4
  %.str.22..str.23.i = select i1 %16, ptr @.str.22, ptr @.str.23
  br label %_Z25proper_unit_for_byte_sizem.exit

_Z25proper_unit_for_byte_sizem.exit:              ; preds = %.thread, %_Z24byte_size_in_proper_unitImET_S0_.exit, %15
  %.0.i29 = phi i64 [ %14, %_Z24byte_size_in_proper_unitImET_S0_.exit ], [ %spec.select.i, %15 ], [ %13, %.thread ]
  %.0.i20 = phi ptr [ @.str.20, %_Z24byte_size_in_proper_unitImET_S0_.exit ], [ %.str.22..str.23.i, %15 ], [ @.str.21, %.thread ]
  %18 = icmp ugt i64 %6, 429496729599
  br i1 %18, label %_Z24byte_size_in_proper_unitImET_S0_.exit23, label %19

19:                                               ; preds = %_Z25proper_unit_for_byte_sizem.exit
  %20 = icmp ugt i64 %6, 419430399
  br i1 %20, label %.thread34, label %23

.thread34:                                        ; preds = %19
  %21 = lshr i64 %6, 22
  br label %_Z25proper_unit_for_byte_sizem.exit26

_Z24byte_size_in_proper_unitImET_S0_.exit23:      ; preds = %_Z25proper_unit_for_byte_sizem.exit
  %22 = lshr i64 %6, 32
  br label %_Z25proper_unit_for_byte_sizem.exit26

23:                                               ; preds = %19
  %24 = icmp ugt i64 %6, 409599
  %25 = lshr i64 %6, 12
  %spec.select.i21 = select i1 %24, i64 %25, i64 %7
  %.str.22..str.23.i24 = select i1 %24, ptr @.str.22, ptr @.str.23
  br label %_Z25proper_unit_for_byte_sizem.exit26

_Z25proper_unit_for_byte_sizem.exit26:            ; preds = %.thread34, %_Z24byte_size_in_proper_unitImET_S0_.exit23, %23
  %.0.i2233 = phi i64 [ %22, %_Z24byte_size_in_proper_unitImET_S0_.exit23 ], [ %spec.select.i21, %23 ], [ %21, %.thread34 ]
  %.0.i25 = phi ptr [ @.str.20, %_Z24byte_size_in_proper_unitImET_S0_.exit23 ], [ %.str.22..str.23.i24, %23 ], [ @.str.21, %.thread34 ]
  tail call void (ptr, ...) @_ZN7LogImplILN6LogTag4typeE49ELS1_40ELS1_0ELS1_0ELS1_0ELS1_0EE5writeILN8LogLevel4typeE3EEEvPKcz(ptr noundef nonnull @.str.14, i64 noundef %.0.i29, ptr noundef nonnull %.0.i20, i64 noundef %.0.i2233, ptr noundef nonnull %.0.i25)
  br label %26

26:                                               ; preds = %5, %_Z25proper_unit_for_byte_sizem.exit26
  %27 = load i64, ptr @_ZN20ShenandoahHeapRegion15RegionSizeBytesE, align 8
  %28 = load i64, ptr @ShenandoahGarbageThreshold, align 8
  %29 = mul i64 %28, %27
  %30 = udiv i64 %29, 100
  %.not40 = icmp eq i64 %3, 0
  br i1 %.not40, label %._crit_edge, label %.lr.ph

.lr.ph:                                           ; preds = %26, %51
  %.039 = phi i64 [ %.1, %51 ], [ 0, %26 ]
  %.01838 = phi i64 [ %52, %51 ], [ 0, %26 ]
  %31 = getelementptr inbounds %"struct.ShenandoahHeuristics::RegionData", ptr %2, i64 %.01838
  %32 = load ptr, ptr %31, align 8
  %33 = getelementptr inbounds i8, ptr %32, i64 72
  %34 = load volatile i64, ptr %33, align 8
  %35 = shl i64 %34, 3
  %36 = add i64 %35, %.039
  %37 = icmp ult i64 %36, %7
  br i1 %37, label %38, label %51

38:                                               ; preds = %.lr.ph
  %39 = getelementptr inbounds i8, ptr %32, i64 8
  %40 = load ptr, ptr %39, align 8
  %41 = getelementptr inbounds i8, ptr %32, i64 48
  %42 = load ptr, ptr %41, align 8
  %43 = ptrtoint ptr %42 to i64
  %44 = ptrtoint ptr %40 to i64
  %45 = load volatile i64, ptr %33, align 8
  %46 = shl i64 %45, 3
  %47 = add i64 %46, %44
  %48 = sub i64 %43, %47
  %49 = icmp ugt i64 %48, %30
  br i1 %49, label %50, label %51

50:                                               ; preds = %38
  tail call void @_ZN23ShenandoahCollectionSet10add_regionEP20ShenandoahHeapRegion(ptr noundef nonnull align 8 dereferenceable(256) %1, ptr noundef nonnull %32) #6
  br label %51

51:                                               ; preds = %.lr.ph, %38, %50
  %.1 = phi i64 [ %36, %50 ], [ %.039, %38 ], [ %.039, %.lr.ph ]
  %52 = add nuw i64 %.01838, 1
  %exitcond.not = icmp eq i64 %52, %3
  br i1 %exitcond.not, label %._crit_edge, label %.lr.ph, !llvm.loop !6

._crit_edge:                                      ; preds = %51, %26
  ret void
}